target datalayout = "e-m:e-p270:32:32-p271:32:32-p272:64:64-i64:64-i128:128-f80:128-n8:16:32:64-S128"
target triple = "x86_64-pc-linux-gnu"

; Function Attrs: nounwind uwtable
define internal i64 @zend_atol_internal(ptr noundef %0, i64 noundef %1) #0 {
  %3 = alloca ptr, align 8
  %4 = alloca i64, align 8
  %5 = alloca i64, align 8
  store ptr %0, ptr %3, align 8, !tbaa !4
  store i64 %1, ptr %4, align 8, !tbaa !9
  %6 = load i64, ptr %4, align 8, !tbaa !9
  %7 = icmp ne i64 %6, 0
  br i1 %7, label %11, label %8

8:                                                ; preds = %2
  %9 = load ptr, ptr %3, align 8, !tbaa !4
  %10 = call i64 @strlen(ptr noundef %9) #19
  store i64 %10, ptr %4, align 8, !tbaa !9
  br label %11

11:                                               ; preds = %8, %2
  call void @llvm.lifetime.start.p0(i64 8, ptr %5) #20
  %12 = load ptr, ptr %3, align 8, !tbaa !4
  %13 = call i64 @strtoll(ptr noundef %12, ptr noundef null, i32 noundef 0) #20
  store i64 %13, ptr %5, align 8, !tbaa !9
  %14 = load i64, ptr %4, align 8, !tbaa !9
  %15 = icmp ugt i64 %14, 0
  br i1 %15, label %16, label %33

16:                                               ; preds = %11
  %17 = load ptr, ptr %3, align 8, !tbaa !4
  %18 = load i64, ptr %4, align 8, !tbaa !9
  %19 = sub i64 %18, 1
  %20 = getelementptr inbounds nuw i8, ptr %17, i64 %19
  %21 = load i8, ptr %20, align 1, !tbaa !11
  %22 = sext i8 %21 to i32
  switch i32 %22, label %32 [
    i32 103, label %23
    i32 71, label %23
    i32 109, label %26
    i32 77, label %26
    i32 107, label %29
    i32 75, label %29
  ]

23:                                               ; preds = %16, %16
  %24 = load i64, ptr %5, align 8, !tbaa !9
  %25 = mul i64 %24, 1024
  store i64 %25, ptr %5, align 8, !tbaa !9
  br label %26

26:                                               ; preds = %16, %16, %23
  %27 = load i64, ptr %5, align 8, !tbaa !9
  %28 = mul i64 %27, 1024
  store i64 %28, ptr %5, align 8, !tbaa !9
  br label %29

29:                                               ; preds = %16, %16, %26
  %30 = load i64, ptr %5, align 8, !tbaa !9
  %31 = mul i64 %30, 1024
  store i64 %31, ptr %5, align 8, !tbaa !9
  br label %32

32:                                               ; preds = %16, %29
  br label %33

33:                                               ; preds = %32, %11
  %34 = load i64, ptr %5, align 8, !tbaa !9
  call void @llvm.lifetime.end.p0(i64 8, ptr %5) #20
  ret i64 %34
}

; Function Attrs: nounwind uwtable
define dso_local i64 @zend_atol(ptr noundef %0, i64 noundef %1) #0 {
  %3 = alloca ptr, align 8
  %4 = alloca i64, align 8
  store ptr %0, ptr %3, align 8, !tbaa !4
  store i64 %1, ptr %4, align 8, !tbaa !9
  %5 = load ptr, ptr %3, align 8, !tbaa !4
  %6 = load i64, ptr %4, align 8, !tbaa !9
  %7 = call i64 @zend_atol_internal(ptr noundef %5, i64 noundef %6)
  ret i64 %7
}