; Function Attrs: mustprogress nofree nounwind willreturn uwtable
define dso_local i64 @zend_atol(ptr noundef readonly captures(none) %0, i64 noundef %1) local_unnamed_addr #0 {
  %.not.i = icmp eq i64 %1, 0
  br i1 %.not.i, label %4, label %.thread.i

.thread.i:                                        ; preds = %2
  %3 = tail call i64 @strtoll(ptr noundef readonly captures(none) %0, ptr noundef null, i32 noundef 0) #28
  br label %7

4:                                                ; preds = %2
  %5 = tail call i64 @strlen(ptr noundef nonnull readonly dereferenceable(1) %0) #29
  %6 = tail call i64 @strtoll(ptr noundef nonnull readonly captures(none) %0, ptr noundef null, i32 noundef 0) #28
  %.not11.i = icmp eq i64 %5, 0
  br i1 %.not11.i, label %zend_atol_internal.exit, label %7

7:                                                ; preds = %4, %.thread.i
  %8 = phi i64 [ %3, %.thread.i ], [ %6, %4 ]
  %.0914.i = phi i64 [ %1, %.thread.i ], [ %5, %4 ]
  %9 = getelementptr i8, ptr %0, i64 %.0914.i
  %10 = getelementptr i8, ptr %9, i64 -1
  %11 = load i8, ptr %10, align 1, !tbaa !4
  switch i8 %11, label %zend_atol_internal.exit [
    i8 103, label %12
    i8 71, label %12
    i8 109, label %14
    i8 77, label %14
    i8 107, label %16
    i8 75, label %16
  ]

12:                                               ; preds = %7, %7
  %13 = shl i64 %8, 10
  br label %14

14:                                               ; preds = %12, %7, %7
  %.1.i = phi i64 [ %8, %7 ], [ %8, %7 ], [ %13, %12 ]
  %15 = shl i64 %.1.i, 10
  br label %16

16:                                               ; preds = %14, %7, %7
  %.2.i = phi i64 [ %8, %7 ], [ %8, %7 ], [ %15, %14 ]
  %17 = shl i64 %.2.i, 10
  br label %zend_atol_internal.exit

zend_atol_internal.exit:                          ; preds = %4, %7, %16
  %.0.i = phi i64 [ %8, %7 ], [ %17, %16 ], [ %6, %4 ]
  ret i64 %.0.i
}